libtelegram-qt5.so.0.1:_Z12binArrayToBNRK10QByteArrayPP9bignum_st
libtelegram-qt5.so.0.1:_Z12bnToBinArrayPK9bignum_st
libtelegram-qt5.so.0.1:_Z12bnToHexArrayPK9bignum_st
libtelegram-qt5.so.0.1:_Z12hexArrayToBNRK10QByteArrayPP9bignum_st
libtelegram-qt5.so.0.1:_Z19getApiContactStatus7TLValue
libtelegram-qt5.so.0.1:_Z23getApiContactLastOnlineRK12TLUserStatus
libtelegram-qt5.so.0.1:_ZN10CRawStream11unsetDeviceEv
libtelegram-qt5.so.0.1:_ZN10CRawStream4readEPvx
libtelegram-qt5.so.0.1:_ZN10CRawStream5writeEPKvx
libtelegram-qt5.so.0.1:_ZN10CRawStream9readBytesEi
libtelegram-qt5.so.0.1:_ZN10CRawStream9setDeviceEP9QIODevice
libtelegram-qt5.so.0.1:_ZN10CRawStreamC1EP10QByteArrayb
libtelegram-qt5.so.0.1:_ZN10CRawStreamC1EP9QIODevice
libtelegram-qt5.so.0.1:_ZN10CRawStreamC1ERK10QByteArray
libtelegram-qt5.so.0.1:_ZN10CRawStreamC2EP10QByteArrayb
libtelegram-qt5.so.0.1:_ZN10CRawStreamC2EP9QIODevice
libtelegram-qt5.so.0.1:_ZN10CRawStreamC2ERK10QByteArray
libtelegram-qt5.so.0.1:_ZN10CRawStreamD0Ev
libtelegram-qt5.so.0.1:_ZN10CRawStreamD1Ev
libtelegram-qt5.so.0.1:_ZN10CRawStreamD2Ev
libtelegram-qt5.so.0.1:_ZN10CRawStreamlsERK10QByteArray
libtelegram-qt5.so.0.1:_ZN10CRawStreamlsERKd
libtelegram-qt5.so.0.1:_ZN10CRawStreamlsEi
libtelegram-qt5.so.0.1:_ZN10CRawStreamlsEx
libtelegram-qt5.so.0.1:_ZN10CRawStreamrsERd
libtelegram-qt5.so.0.1:_ZN10CRawStreamrsERi
libtelegram-qt5.so.0.1:_ZN10CRawStreamrsERx
libtelegram-qt5.so.0.1:_ZN13CTcpTransport11qt_metacallEN11QMetaObject4CallEiPPv
libtelegram-qt5.so.0.1:_ZN13CTcpTransport11qt_metacastEPKc
libtelegram-qt5.so.0.1:_ZN13CTcpTransport11sendPackageERK10QByteArray
libtelegram-qt5.so.0.1:_ZN13CTcpTransport11whenTimeoutEv
libtelegram-qt5.so.0.1:_ZN13CTcpTransport13connectToHostERK7QStringj
libtelegram-qt5.so.0.1:_ZN13CTcpTransport13whenReadyReadEv
libtelegram-qt5.so.0.1:_ZN13CTcpTransport16whenStateChangedEN15QAbstractSocket11SocketStateE
libtelegram-qt5.so.0.1:_ZN13CTcpTransport18disconnectFromHostEv
libtelegram-qt5.so.0.1:_ZN13CTcpTransport9whenErrorEN15QAbstractSocket11SocketErrorE
libtelegram-qt5.so.0.1:_ZN13CTcpTransportC1EP7QObject
libtelegram-qt5.so.0.1:_ZN13CTcpTransportC2EP7QObject
libtelegram-qt5.so.0.1:_ZN13CTcpTransportD0Ev
libtelegram-qt5.so.0.1:_ZN13CTcpTransportD1Ev
libtelegram-qt5.so.0.1:_ZN13CTcpTransportD2Ev
libtelegram-qt5.so.0.1:_ZN13CTelegramCore10builtInDcsEv
libtelegram-qt5.so.0.1:_ZN13CTelegramCore10createChatERK7QVectorIjERK7QString
libtelegram-qt5.so.0.1:_ZN13CTelegramCore10uploadFileEP9QIODeviceRK7QString
libtelegram-qt5.so.0.1:_ZN13CTelegramCore10uploadFileERK10QByteArrayRK7QString
libtelegram-qt5.so.0.1:_ZN13CTelegramCore11addChatUserEjjj
libtelegram-qt5.so.0.1:_ZN13CTelegramCore11addContactsERK11QStringList
libtelegram-qt5.so.0.1:_ZN13CTelegramCore11chatChangedEj
libtelegram-qt5.so.0.1:_ZN13CTelegramCore11getPasswordEv
libtelegram-qt5.so.0.1:_ZN13CTelegramCore11qt_metacallEN11QMetaObject4CallEiPPv
libtelegram-qt5.so.0.1:_ZN13CTelegramCore11qt_metacastEPKc
libtelegram-qt5.so.0.1:_ZN13CTelegramCore11requestFileEPKN17TelegramNamespace10RemoteFileE
libtelegram-qt5.so.0.1:_ZN13CTelegramCore11sendMessageERKN17TelegramNamespace4PeerERK7QString
libtelegram-qt5.so.0.1:_ZN13CTelegramCore11setUserNameERK7QString
libtelegram-qt5.so.0.1:_ZN13CTelegramCore11tryPasswordERK10QByteArrayS2_
libtelegram-qt5.so.0.1:_ZN13CTelegramCore13checkUserNameERK7QString
libtelegram-qt5.so.0.1:_ZN13CTelegramCore14avatarReceivedEjRK10QByteArrayRK7QStringS5_
libtelegram-qt5.so.0.1:_ZN13CTelegramCore14deleteContactsERK7QVectorIjE
libtelegram-qt5.so.0.1:_ZN13CTelegramCore14forwardMessageERKN17TelegramNamespace4PeerEj
libtelegram-qt5.so.0.1:_ZN13CTelegramCore14initConnectionERK7QVectorIN17TelegramNamespace8DcOptionEE
libtelegram-qt5.so.0.1:_ZN13CTelegramCore14requestHistoryERKN17TelegramNamespace4PeerEii
libtelegram-qt5.so.0.1:_ZN13CTelegramCore14setMessageReadERKN17TelegramNamespace4PeerEj
libtelegram-qt5.so.0.1:_ZN13CTelegramCore15closeConnectionEv
libtelegram-qt5.so.0.1:_ZN13CTelegramCore15messageReceivedERKN17TelegramNamespace7MessageE
libtelegram-qt5.so.0.1:_ZN13CTelegramCore15resolveUsernameERK7QString
libtelegram-qt5.so.0.1:_ZN13CTelegramCore15setOnlineStatusEb
libtelegram-qt5.so.0.1:_ZN13CTelegramCore15setPingIntervalEjj
libtelegram-qt5.so.0.1:_ZN13CTelegramCore16filePartReceivedEjRK10QByteArrayRK7QStringjj
libtelegram-qt5.so.0.1:_ZN13CTelegramCore16filePartUploadedEjjj
libtelegram-qt5.so.0.1:_ZN13CTelegramCore16messageReadInboxEN17TelegramNamespace4PeerEj
libtelegram-qt5.so.0.1:_ZN13CTelegramCore16requestPhoneCodeERK7QString
libtelegram-qt5.so.0.1:_ZN13CTelegramCore16userInfoReceivedEj
libtelegram-qt5.so.0.1:_ZN13CTelegramCore17messageReadOutboxEN17TelegramNamespace4PeerEj
libtelegram-qt5.so.0.1:_ZN13CTelegramCore17phoneCodeRequiredEv
libtelegram-qt5.so.0.1:_ZN13CTelegramCore17restoreConnectionERK10QByteArray
libtelegram-qt5.so.0.1:_ZN13CTelegramCore17selfUserAvailableEj
libtelegram-qt5.so.0.1:_ZN13CTelegramCore17setAppInformationEPK15CAppInformation
libtelegram-qt5.so.0.1:_ZN13CTelegramCore18contactListChangedEv
libtelegram-qt5.so.0.1:_ZN13CTelegramCore18requestPhoneStatusERK7QString
libtelegram-qt5.so.0.1:_ZN13CTelegramCore19defaultPingIntervalEv
libtelegram-qt5.so.0.1:_ZN13CTelegramCore19fileRequestFinishedEjN17TelegramNamespace10RemoteFileE
libtelegram-qt5.so.0.1:_ZN13CTelegramCore19getChatParticipantsEP7QVectorIjEj
libtelegram-qt5.so.0.1:_ZN13CTelegramCore19phoneStatusReceivedERK7QStringb
libtelegram-qt5.so.0.1:_ZN13CTelegramCore19setAutoReconnectionEb
libtelegram-qt5.so.0.1:_ZN13CTelegramCore20contactStatusChangedEjN17TelegramNamespace13ContactStatusE
libtelegram-qt5.so.0.1:_ZN13CTelegramCore20passwordInfoReceivedEy
libtelegram-qt5.so.0.1:_ZN13CTelegramCore20requestContactAvatarEj
libtelegram-qt5.so.0.1:_ZN13CTelegramCore21authSignErrorReceivedEN17TelegramNamespace13AuthSignErrorERK7QString
libtelegram-qt5.so.0.1:_ZN13CTelegramCore21contactProfileChangedEj
libtelegram-qt5.so.0.1:_ZN13CTelegramCore21createdChatIdReceivedEyj
libtelegram-qt5.so.0.1:_ZN13CTelegramCore21sentMessageIdReceivedEyj
libtelegram-qt5.so.0.1:_ZN13CTelegramCore21userNameStatusUpdatedERK7QStringN17TelegramNamespace14UserNameStatusE
libtelegram-qt5.so.0.1:_ZN13CTelegramCore22connectionStateChangedEN17TelegramNamespace15ConnectionStateE
libtelegram-qt5.so.0.1:_ZN13CTelegramCore22setMediaDataBufferSizeEj
libtelegram-qt5.so.0.1:_ZN13CTelegramCore23requestMessageMediaDataEj
libtelegram-qt5.so.0.1:_ZN13CTelegramCore24messageMediaDataReceivedEN17TelegramNamespace4PeerEjRK10QByteArrayRK7QStringNS0_11MessageTypeEjj
libtelegram-qt5.so.0.1:_ZN13CTelegramCore25setAcceptableMessageTypesE6QFlagsIN17TelegramNamespace11MessageTypeEE
libtelegram-qt5.so.0.1:_ZN13CTelegramCore25setMessageReceivingFilterE6QFlagsIN17TelegramNamespace11MessageFlagEE
libtelegram-qt5.so.0.1:_ZN13CTelegramCore26authorizationErrorReceivedEN17TelegramNamespace17UnauthorizedErrorERK7QString
libtelegram-qt5.so.0.1:_ZN13CTelegramCore27contactMessageActionChangedEjN17TelegramNamespace13MessageActionE
libtelegram-qt5.so.0.1:_ZN13CTelegramCore31contactChatMessageActionChangedEjjN17TelegramNamespace13MessageActionE
libtelegram-qt5.so.0.1:_ZN13CTelegramCore36localTypingRecommendedRepeatIntervalEv
libtelegram-qt5.so.0.1:_ZN13CTelegramCore6logOutEv
libtelegram-qt5.so.0.1:_ZN13CTelegramCore6signInERK7QStringS2_
libtelegram-qt5.so.0.1:_ZN13CTelegramCore6signUpERK7QStringS2_S2_S2_
libtelegram-qt5.so.0.1:_ZN13CTelegramCore9chatAddedEj
libtelegram-qt5.so.0.1:_ZN13CTelegramCore9loggedOutEb
libtelegram-qt5.so.0.1:_ZN13CTelegramCore9sendMediaERKN17TelegramNamespace4PeerERKNS0_16MessageMediaInfoE
libtelegram-qt5.so.0.1:_ZN13CTelegramCore9setTypingERKN17TelegramNamespace4PeerENS0_13MessageActionE
libtelegram-qt5.so.0.1:_ZN13CTelegramCoreC1EP7QObject
libtelegram-qt5.so.0.1:_ZN13CTelegramCoreC2EP7QObject
libtelegram-qt5.so.0.1:_ZN13CTelegramCoreD0Ev
libtelegram-qt5.so.0.1:_ZN13CTelegramCoreD1Ev
libtelegram-qt5.so.0.1:_ZN13CTelegramCoreD2Ev
libtelegram-qt5.so.0.1:_ZN13TelegramUtils15maskPhoneNumberERK7QString
libtelegram-qt5.so.0.1:_ZN13TelegramUtils19maskPhoneNumberListERK11QStringList
libtelegram-qt5.so.0.1:_ZN13TelegramUtils25mimeTypeByStorageFileTypeE7TLValue
libtelegram-qt5.so.0.1:_ZN13TelegramUtils35publicMessageActionToTelegramActionEN17TelegramNamespace13MessageActionE
libtelegram-qt5.so.0.1:_ZN13TelegramUtils35telegramMessageActionToPublicActionE7TLValue
libtelegram-qt5.so.0.1:_ZN13TelegramUtils38publicMessageTypeToTelegramMessageTypeEN17TelegramNamespace11MessageTypeE
libtelegram-qt5.so.0.1:_ZN13TelegramUtils38telegramMessageTypeToPublicMessageTypeE7TLValue
libtelegram-qt5.so.0.1:_ZN15CAppInformation10setAppHashERK7QString
libtelegram-qt5.so.0.1:_ZN15CAppInformation13setAppVersionERK7QString
libtelegram-qt5.so.0.1:_ZN15CAppInformation13setDeviceInfoERK7QString
libtelegram-qt5.so.0.1:_ZN15CAppInformation15setLanguageCodeERK7QString
libtelegram-qt5.so.0.1:_ZN15CAppInformation8setAppIdEj
libtelegram-qt5.so.0.1:_ZN15CAppInformation9setOsInfoERK7QString
libtelegram-qt5.so.0.1:_ZN15CAppInformationC1EPKS_
libtelegram-qt5.so.0.1:_ZN15CAppInformationC2EPKS_
libtelegram-qt5.so.0.1:_ZN15CTelegramStreamC1EP10QByteArrayb
libtelegram-qt5.so.0.1:_ZN15CTelegramStreamC1EP9QIODevice
libtelegram-qt5.so.0.1:_ZN15CTelegramStreamC1ERK10QByteArray
libtelegram-qt5.so.0.1:_ZN15CTelegramStreamC2EP10QByteArrayb
libtelegram-qt5.so.0.1:_ZN15CTelegramStreamC2EP9QIODevice
libtelegram-qt5.so.0.1:_ZN15CTelegramStreamC2ERK10QByteArray
libtelegram-qt5.so.0.1:_ZN15CTelegramStreamlsERK10QByteArray
libtelegram-qt5.so.0.1:_ZN15CTelegramStreamlsERK10TLDcOption
libtelegram-qt5.so.0.1:_ZN15CTelegramStreamlsERK11TLInputFile
libtelegram-qt5.so.0.1:_ZN15CTelegramStreamlsERK11TLInputPeer
libtelegram-qt5.so.0.1:_ZN15CTelegramStreamlsERK11TLInputUser
libtelegram-qt5.so.0.1:_ZN15CTelegramStreamlsERK12TLInputAudio
libtelegram-qt5.so.0.1:_ZN15CTelegramStreamlsERK12TLInputMedia
libtelegram-qt5.so.0.1:_ZN15CTelegramStreamlsERK12TLInputPhoto
libtelegram-qt5.so.0.1:_ZN15CTelegramStreamlsERK12TLInputVideo
libtelegram-qt5.so.0.1:_ZN15CTelegramStreamlsERK14TLInputContact
libtelegram-qt5.so.0.1:_ZN15CTelegramStreamlsERK14TLInputGeoChat
libtelegram-qt5.so.0.1:_ZN15CTelegramStreamlsERK15TLInputAppEvent
libtelegram-qt5.so.0.1:_ZN15CTelegramStreamlsERK15TLInputDocument
libtelegram-qt5.so.0.1:_ZN15CTelegramStreamlsERK15TLInputGeoPoint
libtelegram-qt5.so.0.1:_ZN15CTelegramStreamlsERK16TLAccountDaysTTL
libtelegram-qt5.so.0.1:_ZN15CTelegramStreamlsERK16TLInputChatPhoto
libtelegram-qt5.so.0.1:_ZN15CTelegramStreamlsERK16TLInputPhotoCrop
libtelegram-qt5.so.0.1:_ZN15CTelegramStreamlsERK16TLMessagesFilter
libtelegram-qt5.so.0.1:_ZN15CTelegramStreamlsERK17TLInputNotifyPeer
libtelegram-qt5.so.0.1:_ZN15CTelegramStreamlsERK17TLInputPrivacyKey
libtelegram-qt5.so.0.1:_ZN15CTelegramStreamlsERK17TLInputStickerSet
libtelegram-qt5.so.0.1:_ZN15CTelegramStreamlsERK18TLInputPrivacyRule
libtelegram-qt5.so.0.1:_ZN15CTelegramStreamlsERK19TLDocumentAttribute
libtelegram-qt5.so.0.1:_ZN15CTelegramStreamlsERK19TLInputFileLocation
libtelegram-qt5.so.0.1:_ZN15CTelegramStreamlsERK19TLSendMessageAction
libtelegram-qt5.so.0.1:_ZN15CTelegramStreamlsERK20TLInputEncryptedChat
libtelegram-qt5.so.0.1:_ZN15CTelegramStreamlsERK20TLInputEncryptedFile
libtelegram-qt5.so.0.1:_ZN15CTelegramStreamlsERK25TLInputPeerNotifySettings
libtelegram-qt5.so.0.1:_ZN15CTelegramStreamlsERK30TLAccountPasswordInputSettings
libtelegram-qt5.so.0.1:_ZN15CTelegramStreamrsER10QByteArray
libtelegram-qt5.so.0.1:_ZN15CTelegramStreamrsER10TLChatFull
libtelegram-qt5.so.0.1:_ZN15CTelegramStreamrsER10TLDcOption
libtelegram-qt5.so.0.1:_ZN15CTelegramStreamrsER10TLDocument
libtelegram-qt5.so.0.1:_ZN15CTelegramStreamrsER10TLGeoPoint
libtelegram-qt5.so.0.1:_ZN15CTelegramStreamrsER10TLUserFull
libtelegram-qt5.so.0.1:_ZN15CTelegramStreamrsER11TLChatPhoto
libtelegram-qt5.so.0.1:_ZN15CTelegramStreamrsER11TLInputFile
libtelegram-qt5.so.0.1:_ZN15CTelegramStreamrsER11TLInputPeer
libtelegram-qt5.so.0.1:_ZN15CTelegramStreamrsER11TLInputUser
libtelegram-qt5.so.0.1:_ZN15CTelegramStreamrsER11TLNearestDc
libtelegram-qt5.so.0.1:_ZN15CTelegramStreamrsER11TLPhotoSize
libtelegram-qt5.so.0.1:_ZN15CTelegramStreamrsER11TLWallPaper
libtelegram-qt5.so.0.1:_ZN15CTelegramStreamrsER12TLChatInvite
libtelegram-qt5.so.0.1:_ZN15CTelegramStreamrsER12TLInputAudio
libtelegram-qt5.so.0.1:_ZN15CTelegramStreamrsER12TLInputMedia
libtelegram-qt5.so.0.1:_ZN15CTelegramStreamrsER12TLInputPhoto
libtelegram-qt5.so.0.1:_ZN15CTelegramStreamrsER12TLInputVideo
libtelegram-qt5.so.0.1:_ZN15CTelegramStreamrsER12TLNotifyPeer
libtelegram-qt5.so.0.1:_ZN15CTelegramStreamrsER12TLPrivacyKey
libtelegram-qt5.so.0.1:_ZN15CTelegramStreamrsER12TLStickerSet
libtelegram-qt5.so.0.1:_ZN15CTelegramStreamrsER12TLUploadFile
libtelegram-qt5.so.0.1:_ZN15CTelegramStreamrsER12TLUserStatus
libtelegram-qt5.so.0.1:_ZN15CTelegramStreamrsER13TLChatLocated
libtelegram-qt5.so.0.1:_ZN15CTelegramStreamrsER13TLContactLink
libtelegram-qt5.so.0.1:_ZN15CTelegramStreamrsER13TLHelpSupport
libtelegram-qt5.so.0.1:_ZN15CTelegramStreamrsER13TLPhotosPhoto
libtelegram-qt5.so.0.1:_ZN15CTelegramStreamrsER13TLPrivacyRule
libtelegram-qt5.so.0.1:_ZN15CTelegramStreamrsER13TLStickerPack
libtelegram-qt5.so.0.1:_ZN15CTelegramStreamrsER14TLAuthSentCode
libtelegram-qt5.so.0.1:_ZN15CTelegramStreamrsER14TLContactFound
libtelegram-qt5.so.0.1:_ZN15CTelegramStreamrsER14TLContactsLink
libtelegram-qt5.so.0.1:_ZN15CTelegramStreamrsER14TLFileLocation
libtelegram-qt5.so.0.1:_ZN15CTelegramStreamrsER14TLInputContact
libtelegram-qt5.so.0.1:_ZN15CTelegramStreamrsER14TLInputGeoChat
libtelegram-qt5.so.0.1:_ZN15CTelegramStreamrsER14TLMessageMedia
libtelegram-qt5.so.0.1:_ZN15CTelegramStreamrsER14TLPhotosPhotos
libtelegram-qt5.so.0.1:_ZN15CTelegramStreamrsER14TLUpdatesState
libtelegram-qt5.so.0.1:_ZN15CTelegramStreamrsER15TLAuthorization
libtelegram-qt5.so.0.1:_ZN15CTelegramStreamrsER15TLContactStatus
libtelegram-qt5.so.0.1:_ZN15CTelegramStreamrsER15TLContactsFound
libtelegram-qt5.so.0.1:_ZN15CTelegramStreamrsER15TLEncryptedChat
libtelegram-qt5.so.0.1:_ZN15CTelegramStreamrsER15TLEncryptedFile
libtelegram-qt5.so.0.1:_ZN15CTelegramStreamrsER15TLHelpAppUpdate
libtelegram-qt5.so.0.1:_ZN15CTelegramStreamrsER15TLInputAppEvent
libtelegram-qt5.so.0.1:_ZN15CTelegramStreamrsER15TLInputDocument
libtelegram-qt5.so.0.1:_ZN15CTelegramStreamrsER15TLInputGeoPoint
libtelegram-qt5.so.0.1:_ZN15CTelegramStreamrsER15TLMessageAction
libtelegram-qt5.so.0.1:_ZN15CTelegramStreamrsER15TLMessagesChats
libtelegram-qt5.so.0.1:_ZN15CTelegramStreamrsER16TLAccountDaysTTL
libtelegram-qt5.so.0.1:_ZN15CTelegramStreamrsER16TLContactBlocked
libtelegram-qt5.so.0.1:_ZN15CTelegramStreamrsER16TLGeoChatMessage
libtelegram-qt5.so.0.1:_ZN15CTelegramStreamrsER16TLHelpInviteText
libtelegram-qt5.so.0.1:_ZN15CTelegramStreamrsER16TLInputChatPhoto
libtelegram-qt5.so.0.1:_ZN15CTelegramStreamrsER16TLInputPhotoCrop
libtelegram-qt5.so.0.1:_ZN15CTelegramStreamrsER16TLMessagesFilter
libtelegram-qt5.so.0.1:_ZN15CTelegramStreamrsER17TLAccountPassword
libtelegram-qt5.so.0.1:_ZN15CTelegramStreamrsER17TLChatParticipant
libtelegram-qt5.so.0.1:_ZN15CTelegramStreamrsER17TLContactsBlocked
libtelegram-qt5.so.0.1:_ZN15CTelegramStreamrsER17TLDisabledFeature
libtelegram-qt5.so.0.1:_ZN15CTelegramStreamrsER17TLGeochatsLocated
libtelegram-qt5.so.0.1:_ZN15CTelegramStreamrsER17TLImportedContact
libtelegram-qt5.so.0.1:_ZN15CTelegramStreamrsER17TLInputNotifyPeer
libtelegram-qt5.so.0.1:_ZN15CTelegramStreamrsER17TLInputPrivacyKey
libtelegram-qt5.so.0.1:_ZN15CTelegramStreamrsER17TLInputStickerSet
libtelegram-qt5.so.0.1:_ZN15CTelegramStreamrsER17TLMessagesDialogs
libtelegram-qt5.so.0.1:_ZN15CTelegramStreamrsER17TLStorageFileType
libtelegram-qt5.so.0.1:_ZN15CTelegramStreamrsER18TLAuthCheckedPhone
libtelegram-qt5.so.0.1:_ZN15CTelegramStreamrsER18TLChatParticipants
libtelegram-qt5.so.0.1:_ZN15CTelegramStreamrsER18TLContactSuggested
libtelegram-qt5.so.0.1:_ZN15CTelegramStreamrsER18TLContactsContacts
libtelegram-qt5.so.0.1:_ZN15CTelegramStreamrsER18TLEncryptedMessage
libtelegram-qt5.so.0.1:_ZN15CTelegramStreamrsER18TLGeochatsMessages
libtelegram-qt5.so.0.1:_ZN15CTelegramStreamrsER18TLInputPrivacyRule
libtelegram-qt5.so.0.1:_ZN15CTelegramStreamrsER18TLMessagesChatFull
libtelegram-qt5.so.0.1:_ZN15CTelegramStreamrsER18TLMessagesDhConfig
libtelegram-qt5.so.0.1:_ZN15CTelegramStreamrsER18TLMessagesMessages
libtelegram-qt5.so.0.1:_ZN15CTelegramStreamrsER18TLMessagesStickers
libtelegram-qt5.so.0.1:_ZN15CTelegramStreamrsER18TLPeerNotifyEvents
libtelegram-qt5.so.0.1:_ZN15CTelegramStreamrsER18TLUserProfilePhoto
libtelegram-qt5.so.0.1:_ZN15CTelegramStreamrsER19TLAuthAuthorization
libtelegram-qt5.so.0.1:_ZN15CTelegramStreamrsER19TLContactsSuggested
libtelegram-qt5.so.0.1:_ZN15CTelegramStreamrsER19TLDocumentAttribute
libtelegram-qt5.so.0.1:_ZN15CTelegramStreamrsER19TLInputFileLocation
libtelegram-qt5.so.0.1:_ZN15CTelegramStreamrsER19TLSendMessageAction
libtelegram-qt5.so.0.1:_ZN15CTelegramStreamrsER19TLUpdatesDifference
libtelegram-qt5.so.0.1:_ZN15CTelegramStreamrsER20TLExportedChatInvite
libtelegram-qt5.so.0.1:_ZN15CTelegramStreamrsER20TLInputEncryptedChat
libtelegram-qt5.so.0.1:_ZN15CTelegramStreamrsER20TLInputEncryptedFile
libtelegram-qt5.so.0.1:_ZN15CTelegramStreamrsER20TLMessagesStickerSet
libtelegram-qt5.so.0.1:_ZN15CTelegramStreamrsER20TLPeerNotifySettings
libtelegram-qt5.so.0.1:_ZN15CTelegramStreamrsER21TLAccountPrivacyRules
libtelegram-qt5.so.0.1:_ZN15CTelegramStreamrsER21TLMessagesAllStickers
libtelegram-qt5.so.0.1:_ZN15CTelegramStreamrsER21TLMessagesSentMessage
libtelegram-qt5.so.0.1:_ZN15CTelegramStreamrsER22TLAuthPasswordRecovery
libtelegram-qt5.so.0.1:_ZN15CTelegramStreamrsER23TLAccountAuthorizations
libtelegram-qt5.so.0.1:_ZN15CTelegramStreamrsER23TLGeochatsStatedMessage
libtelegram-qt5.so.0.1:_ZN15CTelegramStreamrsER23TLInputPeerNotifyEvents
libtelegram-qt5.so.0.1:_ZN15CTelegramStreamrsER23TLReceivedNotifyMessage
libtelegram-qt5.so.0.1:_ZN15CTelegramStreamrsER25TLAccountPasswordSettings
libtelegram-qt5.so.0.1:_ZN15CTelegramStreamrsER25TLInputPeerNotifySettings
libtelegram-qt5.so.0.1:_ZN15CTelegramStreamrsER25TLMessagesAffectedHistory
libtelegram-qt5.so.0.1:_ZN15CTelegramStreamrsER26TLContactsImportedContacts
libtelegram-qt5.so.0.1:_ZN15CTelegramStreamrsER26TLMessagesAffectedMessages
libtelegram-qt5.so.0.1:_ZN15CTelegramStreamrsER27TLAuthExportedAuthorization
libtelegram-qt5.so.0.1:_ZN15CTelegramStreamrsER28TLAccountSentChangePhoneCode
libtelegram-qt5.so.0.1:_ZN15CTelegramStreamrsER30TLAccountPasswordInputSettings
libtelegram-qt5.so.0.1:_ZN15CTelegramStreamrsER30TLMessagesSentEncryptedMessage
libtelegram-qt5.so.0.1:_ZN15CTelegramStreamrsER6TLChat
libtelegram-qt5.so.0.1:_ZN15CTelegramStreamrsER6TLPeer
libtelegram-qt5.so.0.1:_ZN15CTelegramStreamrsER6TLUser
libtelegram-qt5.so.0.1:_ZN15CTelegramStreamrsER7TLAudio
libtelegram-qt5.so.0.1:_ZN15CTelegramStreamrsER7TLError
libtelegram-qt5.so.0.1:_ZN15CTelegramStreamrsER7TLPhoto
libtelegram-qt5.so.0.1:_ZN15CTelegramStreamrsER7TLVideo
libtelegram-qt5.so.0.1:_ZN15CTelegramStreamrsER8TLConfig
libtelegram-qt5.so.0.1:_ZN15CTelegramStreamrsER8TLDialog
libtelegram-qt5.so.0.1:_ZN15CTelegramStreamrsER8TLUpdate
libtelegram-qt5.so.0.1:_ZN15CTelegramStreamrsER9TLContact
libtelegram-qt5.so.0.1:_ZN15CTelegramStreamrsER9TLMessage
libtelegram-qt5.so.0.1:_ZN15CTelegramStreamrsER9TLUpdates
libtelegram-qt5.so.0.1:_ZN15CTelegramStreamrsER9TLWebPage
libtelegram-qt5.so.0.1:_ZN17TelegramNamespace10RemoteFileC1ERKS0_
libtelegram-qt5.so.0.1:_ZN17TelegramNamespace10RemoteFileC1Ev
libtelegram-qt5.so.0.1:_ZN17TelegramNamespace10RemoteFileC2ERKS0_
libtelegram-qt5.so.0.1:_ZN17TelegramNamespace10RemoteFileC2Ev
libtelegram-qt5.so.0.1:_ZN17TelegramNamespace10RemoteFileD1Ev
libtelegram-qt5.so.0.1:_ZN17TelegramNamespace10RemoteFileD2Ev
libtelegram-qt5.so.0.1:_ZN17TelegramNamespace10RemoteFileaSERKS0_
libtelegram-qt5.so.0.1:_ZN17TelegramNamespace11qt_metacallEN11QMetaObject4CallEiPPv
libtelegram-qt5.so.0.1:_ZN17TelegramNamespace11qt_metacastEPKc
libtelegram-qt5.so.0.1:_ZN17TelegramNamespace12PasswordInfo11currentSaltEv
libtelegram-qt5.so.0.1:_ZN17TelegramNamespace12PasswordInfo11hasRecoveryEv
libtelegram-qt5.so.0.1:_ZN17TelegramNamespace12PasswordInfo23emailUnconfirmedPatternEv
libtelegram-qt5.so.0.1:_ZN17TelegramNamespace12PasswordInfo4hintEv
libtelegram-qt5.so.0.1:_ZN17TelegramNamespace12PasswordInfo7newSaltEv
libtelegram-qt5.so.0.1:_ZN17TelegramNamespace12PasswordInfoC1ERKS0_
libtelegram-qt5.so.0.1:_ZN17TelegramNamespace12PasswordInfoC1Ev
libtelegram-qt5.so.0.1:_ZN17TelegramNamespace12PasswordInfoC2ERKS0_
libtelegram-qt5.so.0.1:_ZN17TelegramNamespace12PasswordInfoC2Ev
libtelegram-qt5.so.0.1:_ZN17TelegramNamespace12PasswordInfoD1Ev
libtelegram-qt5.so.0.1:_ZN17TelegramNamespace12PasswordInfoD2Ev
libtelegram-qt5.so.0.1:_ZN17TelegramNamespace12PasswordInfoaSERKS0_
libtelegram-qt5.so.0.1:_ZN17TelegramNamespace13registerTypesEv
libtelegram-qt5.so.0.1:_ZN17TelegramNamespace16MessageMediaInfo10setCaptionERK7QString
libtelegram-qt5.so.0.1:_ZN17TelegramNamespace16MessageMediaInfo11setDurationEj
libtelegram-qt5.so.0.1:_ZN17TelegramNamespace16MessageMediaInfo11setGeoPointEdd
libtelegram-qt5.so.0.1:_ZN17TelegramNamespace16MessageMediaInfo11setMimeTypeERK7QString
libtelegram-qt5.so.0.1:_ZN17TelegramNamespace16MessageMediaInfo13setUploadFileENS_11MessageTypeERKNS_10RemoteFileE
libtelegram-qt5.so.0.1:_ZN17TelegramNamespace16MessageMediaInfo19setDocumentFileNameERK7QString
libtelegram-qt5.so.0.1:_ZN17TelegramNamespace16MessageMediaInfoC1ERKS0_
libtelegram-qt5.so.0.1:_ZN17TelegramNamespace16MessageMediaInfoC1Ev
libtelegram-qt5.so.0.1:_ZN17TelegramNamespace16MessageMediaInfoC2ERKS0_
libtelegram-qt5.so.0.1:_ZN17TelegramNamespace16MessageMediaInfoC2Ev
libtelegram-qt5.so.0.1:_ZN17TelegramNamespace16MessageMediaInfoD1Ev
libtelegram-qt5.so.0.1:_ZN17TelegramNamespace16MessageMediaInfoD2Ev
libtelegram-qt5.so.0.1:_ZN17TelegramNamespace16MessageMediaInfoaSERKS0_
libtelegram-qt5.so.0.1:_ZN17TelegramNamespace8UserInfoC1ERKS0_
libtelegram-qt5.so.0.1:_ZN17TelegramNamespace8UserInfoC1Ev
libtelegram-qt5.so.0.1:_ZN17TelegramNamespace8UserInfoC2ERKS0_
libtelegram-qt5.so.0.1:_ZN17TelegramNamespace8UserInfoC2Ev
libtelegram-qt5.so.0.1:_ZN17TelegramNamespace8UserInfoD1Ev
libtelegram-qt5.so.0.1:_ZN17TelegramNamespace8UserInfoD2Ev
libtelegram-qt5.so.0.1:_ZN17TelegramNamespace8UserInfoaSERKS0_
libtelegram-qt5.so.0.1:_ZN18CTelegramTransport11qt_metacallEN11QMetaObject4CallEiPPv
libtelegram-qt5.so.0.1:_ZN18CTelegramTransport11qt_metacastEPKc
libtelegram-qt5.so.0.1:_ZN18CTelegramTransport12stateChangedEN15QAbstractSocket11SocketStateE
libtelegram-qt5.so.0.1:_ZN18CTelegramTransport5errorEN15QAbstractSocket11SocketErrorE
libtelegram-qt5.so.0.1:_ZN18CTelegramTransport7timeoutEv
libtelegram-qt5.so.0.1:_ZN18CTelegramTransport9readyReadEv
libtelegram-qt5.so.0.1:_ZN19CTelegramConnection10authLogOutEv
libtelegram-qt5.so.0.1:_ZN19CTelegramConnection10authSignInERK7QStringS2_S2_
libtelegram-qt5.so.0.1:_ZN19CTelegramConnection10authSignUpERK7QStringS2_S2_S2_S2_
libtelegram-qt5.so.0.1:_ZN19CTelegramConnection10setAuthKeyERK10QByteArray
libtelegram-qt5.so.0.1:_ZN19CTelegramConnection10uploadFileEyjRK10QByteArrayj
libtelegram-qt5.so.0.1:_ZN19CTelegramConnection11authSendSmsERK7QStringS2_
libtelegram-qt5.so.0.1:_ZN19CTelegramConnection11connectToDcEv
libtelegram-qt5.so.0.1:_ZN19CTelegramConnection11qt_metacallEN11QMetaObject4CallEiPPv
libtelegram-qt5.so.0.1:_ZN19CTelegramConnection11qt_metacastEPKc
libtelegram-qt5.so.0.1:_ZN19CTelegramConnection11sendMessageERK11TLInputPeerRK7QString
libtelegram-qt5.so.0.1:_ZN19CTelegramConnection12authSendCallERK7QStringS2_
libtelegram-qt5.so.0.1:_ZN19CTelegramConnection12authSendCodeERK7QStringjjS2_S2_
libtelegram-qt5.so.0.1:_ZN19CTelegramConnection12downloadFileERK19TLInputFileLocationjjj
libtelegram-qt5.so.0.1:_ZN19CTelegramConnection12fileDataSentEj
libtelegram-qt5.so.0.1:_ZN19CTelegramConnection12newMessageIdEv
libtelegram-qt5.so.0.1:_ZN19CTelegramConnection12setAuthStateENS_9AuthStateE
libtelegram-qt5.so.0.1:_ZN19CTelegramConnection12setDeltaTimeEi
libtelegram-qt5.so.0.1:_ZN19CTelegramConnection12setTransportEP18CTelegramTransport
libtelegram-qt5.so.0.1:_ZN19CTelegramConnection13contactsBlockERK11TLInputUser
libtelegram-qt5.so.0.1:_ZN19CTelegramConnection13processUpdateER15CTelegramStreamPby
libtelegram-qt5.so.0.1:_ZN19CTelegramConnection13statusChangedEiij
libtelegram-qt5.so.0.1:_ZN19CTelegramConnection13stopAuthTimerEv
libtelegram-qt5.so.0.1:_ZN19CTelegramConnection13stopPingTimerEv
libtelegram-qt5.so.0.1:_ZN19CTelegramConnection13uploadGetFileERK19TLInputFileLocationjj
libtelegram-qt5.so.0.1:_ZN19CTelegramConnection13usersGetUsersERK8TLVectorI11TLInputUserE
libtelegram-qt5.so.0.1:_ZN19CTelegramConnection13usersReceivedERK7QVectorI6TLUserE
libtelegram-qt5.so.0.1:_ZN19CTelegramConnection14authCheckPhoneERK7QString
libtelegram-qt5.so.0.1:_ZN19CTelegramConnection14contactsSearchERK7QStringj
libtelegram-qt5.so.0.1:_ZN19CTelegramConnection14messagesSearchERK11TLInputPeerRK7QStringRK16TLMessagesFilterjjjjj
libtelegram-qt5.so.0.1:_ZN19CTelegramConnection14startAuthTimerEv
libtelegram-qt5.so.0.1:_ZN19CTelegramConnection14startPingTimerEv
libtelegram-qt5.so.0.1:_ZN19CTelegramConnection15addMessageToAckEy
libtelegram-qt5.so.0.1:_ZN19CTelegramConnection15authSendInvitesERK8TLVectorI7QStringERKS1_
libtelegram-qt5.so.0.1:_ZN19CTelegramConnection15contactsUnblockERK11TLInputUser
libtelegram-qt5.so.0.1:_ZN19CTelegramConnection15formatTimeStampEx
libtelegram-qt5.so.0.1:_ZN19CTelegramConnection15processAuthSignER15CTelegramStreamy
libtelegram-qt5.so.0.1:_ZN19CTelegramConnection15processPingPongER15CTelegramStream
libtelegram-qt5.so.0.1:_ZN19CTelegramConnection15processRpcErrorER15CTelegramStreamy7TLValue
libtelegram-qt5.so.0.1:_ZN19CTelegramConnection15processRpcQueryERK10QByteArray
libtelegram-qt5.so.0.1:_ZN19CTelegramConnection15updatesGetStateEv
libtelegram-qt5.so.0.1:_ZN19CTelegramConnection15updatesReceivedERK9TLUpdatesy
libtelegram-qt5.so.0.1:_ZN19CTelegramConnection16authStateChangedEij
libtelegram-qt5.so.0.1:_ZN19CTelegramConnection16fileDataReceivedERK12TLUploadFilejj
libtelegram-qt5.so.0.1:_ZN19CTelegramConnection16fullUserReceivedERK10TLUserFull
libtelegram-qt5.so.0.1:_ZN19CTelegramConnection16getConfigurationEv
libtelegram-qt5.so.0.1:_ZN19CTelegramConnection16messagesGetChatsERK8TLVectorIjE
libtelegram-qt5.so.0.1:_ZN19CTelegramConnection16passwordReceivedERK17TLAccountPasswordy
libtelegram-qt5.so.0.1:_ZN19CTelegramConnection16processContainerER15CTelegramStream
libtelegram-qt5.so.0.1:_ZN19CTelegramConnection16processRpcResultER15CTelegramStreamy
libtelegram-qt5.so.0.1:_ZN19CTelegramConnection16requestPhoneCodeERK7QString
libtelegram-qt5.so.0.1:_ZN19CTelegramConnection16sendPlainPackageERK10QByteArray
libtelegram-qt5.so.0.1:_ZN19CTelegramConnection16usersGetFullUserERK11TLInputUser
libtelegram-qt5.so.0.1:_ZN19CTelegramConnection17accountGetPrivacyERK17TLInputPrivacyKey
libtelegram-qt5.so.0.1:_ZN19CTelegramConnection17accountSetPrivacyERK17TLInputPrivacyKeyRK8TLVectorI18TLInputPrivacyRuleE
libtelegram-qt5.so.0.1:_ZN19CTelegramConnection17authCheckPasswordERK10QByteArray
libtelegram-qt5.so.0.1:_ZN19CTelegramConnection17messagesSendMediaEjRK11TLInputPeerjRK12TLInputMediay
libtelegram-qt5.so.0.1:_ZN19CTelegramConnection17messagesSetTypingERK11TLInputPeerRK19TLSendMessageAction
libtelegram-qt5.so.0.1:_ZN19CTelegramConnection17phoneCodeRequiredEv
libtelegram-qt5.so.0.1:_ZN19CTelegramConnection17processAuthLogOutER15CTelegramStreamy
libtelegram-qt5.so.0.1:_ZN19CTelegramConnection17processMessageAckER15CTelegramStream
libtelegram-qt5.so.0.1:_ZN19CTelegramConnection17whenItsTimeToPingEv
libtelegram-qt5.so.0.1:_ZN19CTelegramConnection18accountChangePhoneERK7QStringS2_S2_
libtelegram-qt5.so.0.1:_ZN19CTelegramConnection18accountGetPasswordEv
libtelegram-qt5.so.0.1:_ZN19CTelegramConnection18actualDcIdReceivedEjj
libtelegram-qt5.so.0.1:_ZN19CTelegramConnection18contactListChangedERK7QVectorIjES3_
libtelegram-qt5.so.0.1:_ZN19CTelegramConnection18contactsExportCardEv
libtelegram-qt5.so.0.1:_ZN19CTelegramConnection18contactsGetBlockedEjj
libtelegram-qt5.so.0.1:_ZN19CTelegramConnection18contactsImportCardERK8TLVectorIjE
libtelegram-qt5.so.0.1:_ZN19CTelegramConnection18messagesCreateChatERK8TLVectorI11TLInputUserERK7QString
libtelegram-qt5.so.0.1:_ZN19CTelegramConnection18messagesGetDialogsEjjj
libtelegram-qt5.so.0.1:_ZN19CTelegramConnection18messagesGetHistoryERK11TLInputPeerjjj
libtelegram-qt5.so.0.1:_ZN19CTelegramConnection18processAuthSendSmsER15CTelegramStreamy
libtelegram-qt5.so.0.1:_ZN19CTelegramConnection18uploadSaveFilePartEyjRK10QByteArray
libtelegram-qt5.so.0.1:_ZN19CTelegramConnection19accountUpdateStatusEb
libtelegram-qt5.so.0.1:_ZN19CTelegramConnection19acknowledgeMessagesERK8TLVectorIyE
libtelegram-qt5.so.0.1:_ZN19CTelegramConnection19authBindTempAuthKeyEyyjRK10QByteArray
libtelegram-qt5.so.0.1:_ZN19CTelegramConnection19authRecoverPasswordERK7QString
libtelegram-qt5.so.0.1:_ZN19CTelegramConnection19contactListReceivedERK7QVectorIjE
libtelegram-qt5.so.0.1:_ZN19CTelegramConnection19contactsGetContactsERK7QString
libtelegram-qt5.so.0.1:_ZN19CTelegramConnection19contactsGetStatusesEv
libtelegram-qt5.so.0.1:_ZN19CTelegramConnection19messagesAddChatUserEjRK11TLInputUserj
libtelegram-qt5.so.0.1:_ZN19CTelegramConnection19messagesGetDhConfigEjj
libtelegram-qt5.so.0.1:_ZN19CTelegramConnection19messagesGetFullChatEj
libtelegram-qt5.so.0.1:_ZN19CTelegramConnection19messagesGetMessagesERK8TLVectorIjE
libtelegram-qt5.so.0.1:_ZN19CTelegramConnection19messagesGetStickersERK7QStringS2_
libtelegram-qt5.so.0.1:_ZN19CTelegramConnection19messagesReadHistoryERK11TLInputPeerjj
libtelegram-qt5.so.0.1:_ZN19CTelegramConnection19messagesSendMessageEjRK11TLInputPeerjRK7QStringy
libtelegram-qt5.so.0.1:_ZN19CTelegramConnection19phoneStatusReceivedERK7QStringb
libtelegram-qt5.so.0.1:_ZN19CTelegramConnection19pingDelayDisconnectEj
libtelegram-qt5.so.0.1:_ZN19CTelegramConnection19processAuthSendCodeER15CTelegramStreamy
libtelegram-qt5.so.0.1:_ZN19CTelegramConnection19requestDhParametersEv
libtelegram-qt5.so.0.1:_ZN19CTelegramConnection19wantedMainDcChangedEj7QString
libtelegram-qt5.so.0.1:_ZN19CTelegramConnection20accountCheckUsernameERK7QString
libtelegram-qt5.so.0.1:_ZN19CTelegramConnection20accountDeleteAccountERK7QString
libtelegram-qt5.so.0.1:_ZN19CTelegramConnection20accountGetAccountTTLEv
libtelegram-qt5.so.0.1:_ZN19CTelegramConnection20accountGetWallPapersEv
libtelegram-qt5.so.0.1:_ZN19CTelegramConnection20accountSetAccountTTLERK16TLAccountDaysTTL
libtelegram-qt5.so.0.1:_ZN19CTelegramConnection20accountUpdateProfileERK7QStringS2_
libtelegram-qt5.so.0.1:_ZN19CTelegramConnection20contactsGetSuggestedEj
libtelegram-qt5.so.0.1:_ZN19CTelegramConnection20newRedirectedPackageERK10QByteArrayj
libtelegram-qt5.so.0.1:_ZN19CTelegramConnection20processErrorSeeOtherE7QStringy
libtelegram-qt5.so.0.1:_ZN19CTelegramConnection20processHelpGetConfigER15CTelegramStreamy
libtelegram-qt5.so.0.1:_ZN19CTelegramConnection20processUploadGetFileER15CTelegramStreamy
libtelegram-qt5.so.0.1:_ZN19CTelegramConnection20processUsersGetUsersER15CTelegramStreamy
libtelegram-qt5.so.0.1:_ZN19CTelegramConnection20sendEncryptedPackageERK10QByteArrayb
libtelegram-qt5.so.0.1:_ZN19CTelegramConnection20setKeepAliveSettingsEjj
libtelegram-qt5.so.0.1:_ZN19CTelegramConnection20updatesGetDifferenceEjjj
libtelegram-qt5.so.0.1:_ZN19CTelegramConnection20updatesStateReceivedERK14TLUpdatesState
libtelegram-qt5.so.0.1:_ZN19CTelegramConnection20whenTransportTimeoutEv
libtelegram-qt5.so.0.1:_ZN19CTelegramConnection21accountRegisterDeviceEjRK7QStringS2_S2_S2_bS2_
libtelegram-qt5.so.0.1:_ZN19CTelegramConnection21accountUpdateUsernameERK7QString
libtelegram-qt5.so.0.1:_ZN19CTelegramConnection21answerPqAuthorizationERK10QByteArray
libtelegram-qt5.so.0.1:_ZN19CTelegramConnection21authSignErrorReceivedEN17TelegramNamespace13AuthSignErrorERK7QString
libtelegram-qt5.so.0.1:_ZN19CTelegramConnection21contactsDeleteContactERK11TLInputUser
libtelegram-qt5.so.0.1:_ZN19CTelegramConnection21messagesChatsReceivedERK7QVectorI6TLChatE
libtelegram-qt5.so.0.1:_ZN19CTelegramConnection21messagesDeleteHistoryERK11TLInputPeerj
libtelegram-qt5.so.0.1:_ZN19CTelegramConnection21messagesEditChatPhotoEjRK16TLInputChatPhoto
libtelegram-qt5.so.0.1:_ZN19CTelegramConnection21messagesEditChatTitleEjRK7QString
libtelegram-qt5.so.0.1:_ZN19CTelegramConnection21messagesGetStickerSetERK17TLInputStickerSet
libtelegram-qt5.so.0.1:_ZN19CTelegramConnection21messagesReceivedQueueEj
libtelegram-qt5.so.0.1:_ZN19CTelegramConnection21messagesSendBroadcastERK8TLVectorI11TLInputUserERKS0_IyERK7QStringRK12TLInputMedia
libtelegram-qt5.so.0.1:_ZN19CTelegramConnection21messagesSendEncryptedERK20TLInputEncryptedChatyRK10QByteArray
libtelegram-qt5.so.0.1:_ZN19CTelegramConnection21processAuthCheckPhoneER15CTelegramStreamy
libtelegram-qt5.so.0.1:_ZN19CTelegramConnection21processSessionCreatedER15CTelegramStream
libtelegram-qt5.so.0.1:_ZN19CTelegramConnection21uploadSaveBigFilePartEyjjRK10QByteArray
libtelegram-qt5.so.0.1:_ZN19CTelegramConnection21userNameStatusUpdatedERK7QStringN17TelegramNamespace14UserNameStatusE
libtelegram-qt5.so.0.1:_ZN19CTelegramConnection22contactsDeleteContactsERK8TLVectorI11TLInputUserE
libtelegram-qt5.so.0.1:_ZN19CTelegramConnection22contactsImportContactsERK8TLVectorI14TLInputContactEb
libtelegram-qt5.so.0.1:_ZN19CTelegramConnection22messagesDeleteChatUserEjRK11TLInputUser
libtelegram-qt5.so.0.1:_ZN19CTelegramConnection22messagesDeleteMessagesERK8TLVectorIjE
libtelegram-qt5.so.0.1:_ZN19CTelegramConnection22messagesForwardMessageERK11TLInputPeerjy
libtelegram-qt5.so.0.1:_ZN19CTelegramConnection22messagesGetAllStickersERK7QString
libtelegram-qt5.so.0.1:_ZN19CTelegramConnection22processServersDHAnswerERK10QByteArray
libtelegram-qt5.so.0.1:_ZN19CTelegramConnection22processUpdatesGetStateER15CTelegramStreamy
libtelegram-qt5.so.0.1:_ZN19CTelegramConnection22requestPqAuthorizationEv
libtelegram-qt5.so.0.1:_ZN19CTelegramConnection22whenTransportReadyReadEv
libtelegram-qt5.so.0.1:_ZN19CTelegramConnection23accountUnregisterDeviceEjRK7QString
libtelegram-qt5.so.0.1:_ZN19CTelegramConnection23authExportAuthorizationEj
libtelegram-qt5.so.0.1:_ZN19CTelegramConnection23authImportAuthorizationEjRK10QByteArray
libtelegram-qt5.so.0.1:_ZN19CTelegramConnection23authResetAuthorizationsEv
libtelegram-qt5.so.0.1:_ZN19CTelegramConnection23contactsResolveUsernameERK7QString
libtelegram-qt5.so.0.1:_ZN19CTelegramConnection23dcConfigurationReceivedEj
libtelegram-qt5.so.0.1:_ZN19CTelegramConnection23messageSentInfoReceivedEy21TLMessagesSentMessage
libtelegram-qt5.so.0.1:_ZN19CTelegramConnection23messagesCheckChatInviteERK7QString
libtelegram-qt5.so.0.1:_ZN19CTelegramConnection23messagesDialogsReceivedERK17TLMessagesDialogsjjj
libtelegram-qt5.so.0.1:_ZN19CTelegramConnection23messagesForwardMessagesERK11TLInputPeerRK8TLVectorIjERKS3_IyE
libtelegram-qt5.so.0.1:_ZN19CTelegramConnection23messagesHistoryReceivedERK18TLMessagesMessagesRK11TLInputPeer
libtelegram-qt5.so.0.1:_ZN19CTelegramConnection23processMessagesGetChatsER15CTelegramStreamy
libtelegram-qt5.so.0.1:_ZN19CTelegramConnection23processUsersGetFullUserER15CTelegramStreamy
libtelegram-qt5.so.0.1:_ZN19CTelegramConnection24accountGetAuthorizationsEv
libtelegram-qt5.so.0.1:_ZN19CTelegramConnection24accountGetNotifySettingsERK17TLInputNotifyPeer
libtelegram-qt5.so.0.1:_ZN19CTelegramConnection24messagesAcceptEncryptionERK20TLInputEncryptedChatRK10QByteArrayy
libtelegram-qt5.so.0.1:_ZN19CTelegramConnection24messagesExportChatInviteEj
libtelegram-qt5.so.0.1:_ZN19CTelegramConnection24messagesFullChatReceivedERK10TLChatFullRK7QVectorI6TLChatERKS3_I6TLUserE
libtelegram-qt5.so.0.1:_ZN19CTelegramConnection24messagesImportChatInviteERK7QString
libtelegram-qt5.so.0.1:_ZN19CTelegramConnection24messagesReceivedMessagesEj
libtelegram-qt5.so.0.1:_ZN19CTelegramConnection24processMessagesSetTypingER15CTelegramStreamy
libtelegram-qt5.so.0.1:_ZN19CTelegramConnection24processRedirectedPackageERK10QByteArray
libtelegram-qt5.so.0.1:_ZN19CTelegramConnection24whenItsTimeToAckMessagesEv
libtelegram-qt5.so.0.1:_ZN19CTelegramConnection25accountResetAuthorizationEy
libtelegram-qt5.so.0.1:_ZN19CTelegramConnection25accountUpdateDeviceLockedEj
libtelegram-qt5.so.0.1:_ZN19CTelegramConnection25messagesDiscardEncryptionEj
libtelegram-qt5.so.0.1:_ZN19CTelegramConnection25messagesGetWebPagePreviewERK7QString
libtelegram-qt5.so.0.1:_ZN19CTelegramConnection25messagesInstallStickerSetERK17TLInputStickerSet
libtelegram-qt5.so.0.1:_ZN19CTelegramConnection25messagesRequestEncryptionERK11TLInputUserjRK10QByteArray
libtelegram-qt5.so.0.1:_ZN19CTelegramConnection25messagesSendEncryptedFileERK20TLInputEncryptedChatyRK10QByteArrayRK20TLInputEncryptedFile
libtelegram-qt5.so.0.1:_ZN19CTelegramConnection25processAccountGetPasswordER15CTelegramStreamy
libtelegram-qt5.so.0.1:_ZN19CTelegramConnection25processGzipPackedRpcQueryER15CTelegramStream
libtelegram-qt5.so.0.1:_ZN19CTelegramConnection25processMessagesGetDialogsER15CTelegramStreamy
libtelegram-qt5.so.0.1:_ZN19CTelegramConnection25processMessagesGetHistoryER15CTelegramStreamy
libtelegram-qt5.so.0.1:_ZN19CTelegramConnection25processUploadSaveFilePartER15CTelegramStreamy
libtelegram-qt5.so.0.1:_ZN19CTelegramConnection25requestDhGenerationResultEv
libtelegram-qt5.so.0.1:_ZN19CTelegramConnection25sendEncryptedPackageAgainEy
libtelegram-qt5.so.0.1:_ZN19CTelegramConnection25updatesDifferenceReceivedERK19TLUpdatesDifference
libtelegram-qt5.so.0.1:_ZN19CTelegramConnection25whenTransportStateChangedEv
libtelegram-qt5.so.0.1:_ZN19CTelegramConnection26accountGetPasswordSettingsERK10QByteArray
libtelegram-qt5.so.0.1:_ZN19CTelegramConnection26accountResetNotifySettingsEv
libtelegram-qt5.so.0.1:_ZN19CTelegramConnection26accountSendChangePhoneCodeERK7QString
libtelegram-qt5.so.0.1:_ZN19CTelegramConnection26authorizationErrorReceivedEN17TelegramNamespace17UnauthorizedErrorERK7QString
libtelegram-qt5.so.0.1:_ZN19CTelegramConnection26messagesSetEncryptedTypingERK20TLInputEncryptedChatb
libtelegram-qt5.so.0.1:_ZN19CTelegramConnection26processAccountUpdateStatusER15CTelegramStreamy
libtelegram-qt5.so.0.1:_ZN19CTelegramConnection26processContactsGetContactsER15CTelegramStreamy
libtelegram-qt5.so.0.1:_ZN19CTelegramConnection26processGzipPackedRpcResultER15CTelegramStreamy
libtelegram-qt5.so.0.1:_ZN19CTelegramConnection26processMessagesGetFullChatER15CTelegramStreamy
libtelegram-qt5.so.0.1:_ZN19CTelegramConnection26processMessagesReadHistoryER15CTelegramStreamy
libtelegram-qt5.so.0.1:_ZN19CTelegramConnection26processMessagesSendMessageER15CTelegramStreamy
libtelegram-qt5.so.0.1:_ZN19CTelegramConnection26timeStampToMSecsSinceEpochEy
libtelegram-qt5.so.0.1:_ZN19CTelegramConnection27accountUpdateNotifySettingsERK17TLInputNotifyPeerRK25TLInputPeerNotifySettings
libtelegram-qt5.so.0.1:_ZN19CTelegramConnection27authRequestPasswordRecoveryEv
libtelegram-qt5.so.0.1:_ZN19CTelegramConnection27messagesReadMessageContentsERK8TLVectorIjE
libtelegram-qt5.so.0.1:_ZN19CTelegramConnection27messagesUninstallStickerSetERK17TLInputStickerSet
libtelegram-qt5.so.0.1:_ZN19CTelegramConnection27processAccountCheckUsernameER15CTelegramStreamy
libtelegram-qt5.so.0.1:_ZN19CTelegramConnection27processUpdatesGetDifferenceER15CTelegramStreamy
libtelegram-qt5.so.0.1:_ZN19CTelegramConnection28messagesReadEncryptedHistoryERK20TLInputEncryptedChatj
libtelegram-qt5.so.0.1:_ZN19CTelegramConnection28messagesSendEncryptedServiceERK20TLInputEncryptedChatyRK10QByteArray
libtelegram-qt5.so.0.1:_ZN19CTelegramConnection28processAccountUpdateUsernameER15CTelegramStreamy
libtelegram-qt5.so.0.1:_ZN19CTelegramConnection29accountUpdatePasswordSettingsERK10QByteArrayRK30TLAccountPasswordInputSettings
libtelegram-qt5.so.0.1:_ZN19CTelegramConnection29processContactsDeleteContactsER15CTelegramStreamy
libtelegram-qt5.so.0.1:_ZN19CTelegramConnection29processContactsImportContactsER15CTelegramStreamy
libtelegram-qt5.so.0.1:_ZN19CTelegramConnection30processAuthExportAuthorizationER15CTelegramStreamy
libtelegram-qt5.so.0.1:_ZN19CTelegramConnection30processContactsResolveUsernameER15CTelegramStreamy
libtelegram-qt5.so.0.1:_ZN19CTelegramConnection31processMessagesReceivedMessagesER15CTelegramStreamy
libtelegram-qt5.so.0.1:_ZN19CTelegramConnection33authExportedAuthorizationReceivedEjjRK10QByteArray
libtelegram-qt5.so.0.1:_ZN19CTelegramConnection33processIgnoredMessageNotificationER15CTelegramStream
libtelegram-qt5.so.0.1:_ZN19CTelegramConnection4pingEv
libtelegram-qt5.so.0.1:_ZN19CTelegramConnection6signInERK7QStringS2_
libtelegram-qt5.so.0.1:_ZN19CTelegramConnection6signUpERK7QStringS2_S2_S2_
libtelegram-qt5.so.0.1:_ZN19CTelegramConnection8answerDhERK10QByteArray
libtelegram-qt5.so.0.1:_ZN19CTelegramConnection8initAuthEv
libtelegram-qt5.so.0.1:_ZN19CTelegramConnection9loggedOutEb
libtelegram-qt5.so.0.1:_ZN19CTelegramConnection9sendMediaERK11TLInputPeerRK12TLInputMedia
libtelegram-qt5.so.0.1:_ZN19CTelegramConnection9setDcInfoERK10TLDcOption
libtelegram-qt5.so.0.1:_ZN19CTelegramConnection9setStatusENS_16ConnectionStatusENS_22ConnectionStatusReasonE
libtelegram-qt5.so.0.1:_ZN19CTelegramConnectionC1EPK15CAppInformationP7QObject
libtelegram-qt5.so.0.1:_ZN19CTelegramConnectionC2EPK15CAppInformationP7QObject
libtelegram-qt5.so.0.1:_ZN19CTelegramDispatcher10builtInDcsEv
libtelegram-qt5.so.0.1:_ZN19CTelegramDispatcher10createChatERK7QVectorIjE7QString
libtelegram-qt5.so.0.1:_ZN19CTelegramDispatcher10updateChatERK6TLChat
libtelegram-qt5.so.0.1:_ZN19CTelegramDispatcher10uploadFileEP9QIODeviceRK7QString
libtelegram-qt5.so.0.1:_ZN19CTelegramDispatcher10uploadFileERK10QByteArrayRK7QString
libtelegram-qt5.so.0.1:_ZN19CTelegramDispatcher11addChatUserEjjj
libtelegram-qt5.so.0.1:_ZN19CTelegramDispatcher11addContactsERK11QStringListb
libtelegram-qt5.so.0.1:_ZN19CTelegramDispatcher11chatChangedEj
libtelegram-qt5.so.0.1:_ZN19CTelegramDispatcher11getContactsEv
libtelegram-qt5.so.0.1:_ZN19CTelegramDispatcher11getPasswordEv
libtelegram-qt5.so.0.1:_ZN19CTelegramDispatcher11qt_metacallEN11QMetaObject4CallEiPPv
libtelegram-qt5.so.0.1:_ZN19CTelegramDispatcher11qt_metacastEPKc
libtelegram-qt5.so.0.1:_ZN19CTelegramDispatcher11requestFileEPKN17TelegramNamespace10RemoteFileEj
libtelegram-qt5.so.0.1:_ZN19CTelegramDispatcher11sendMessageERKN17TelegramNamespace4PeerERK7QString
libtelegram-qt5.so.0.1:_ZN19CTelegramDispatcher11setUserNameERK7QString
libtelegram-qt5.so.0.1:_ZN19CTelegramDispatcher11tryPasswordERK10QByteArrayS2_
libtelegram-qt5.so.0.1:_ZN19CTelegramDispatcher12getChatsInfoEv
libtelegram-qt5.so.0.1:_ZN19CTelegramDispatcher13checkUserNameERK7QString
libtelegram-qt5.so.0.1:_ZN19CTelegramDispatcher13getDifferenceEv
libtelegram-qt5.so.0.1:_ZN19CTelegramDispatcher13processUpdateERK8TLUpdate
libtelegram-qt5.so.0.1:_ZN19CTelegramDispatcher14addFileRequestERK21FileRequestDescriptor
libtelegram-qt5.so.0.1:_ZN19CTelegramDispatcher14avatarReceivedEjRK10QByteArrayRK7QStringS5_
libtelegram-qt5.so.0.1:_ZN19CTelegramDispatcher14deleteContactsERK7QVectorIjE
libtelegram-qt5.so.0.1:_ZN19CTelegramDispatcher14forwardMessageERKN17TelegramNamespace4PeerEj
libtelegram-qt5.so.0.1:_ZN19CTelegramDispatcher14initConnectionERK7QVectorIN17TelegramNamespace8DcOptionEE
libtelegram-qt5.so.0.1:_ZN19CTelegramDispatcher14requestHistoryERKN17TelegramNamespace4PeerEjj
libtelegram-qt5.so.0.1:_ZN19CTelegramDispatcher14setMessageReadERKN17TelegramNamespace4PeerEj
libtelegram-qt5.so.0.1:_ZN19CTelegramDispatcher14setUpdateStateEjjj
libtelegram-qt5.so.0.1:_ZN19CTelegramDispatcher14updateFullChatERK10TLChatFull
libtelegram-qt5.so.0.1:_ZN19CTelegramDispatcher15closeConnectionEv
libtelegram-qt5.so.0.1:_ZN19CTelegramDispatcher15emitChatChangedEj
libtelegram-qt5.so.0.1:_ZN19CTelegramDispatcher15getInitialUsersEv
libtelegram-qt5.so.0.1:_ZN19CTelegramDispatcher15getUpdatesStateEv
libtelegram-qt5.so.0.1:_ZN19CTelegramDispatcher15messageReceivedERKN17TelegramNamespace7MessageE
libtelegram-qt5.so.0.1:_ZN19CTelegramDispatcher15onChatsReceivedERK7QVectorI6TLChatE
libtelegram-qt5.so.0.1:_ZN19CTelegramDispatcher15onUsersReceivedERK7QVectorI6TLUserE
libtelegram-qt5.so.0.1:_ZN19CTelegramDispatcher15resolveUsernameERK7QString
libtelegram-qt5.so.0.1:_ZN19CTelegramDispatcher15setOnlineStatusEb
libtelegram-qt5.so.0.1:_ZN19CTelegramDispatcher15setPingIntervalEjj
libtelegram-qt5.so.0.1:_ZN19CTelegramDispatcher16createConnectionERK10TLDcOption
libtelegram-qt5.so.0.1:_ZN19CTelegramDispatcher16filePartReceivedEjRK10QByteArrayRK7QStringjj
libtelegram-qt5.so.0.1:_ZN19CTelegramDispatcher16filePartUploadedEjjj
libtelegram-qt5.so.0.1:_ZN19CTelegramDispatcher16messageReadInboxEN17TelegramNamespace4PeerEj
libtelegram-qt5.so.0.1:_ZN19CTelegramDispatcher16requestPhoneCodeERK7QString
libtelegram-qt5.so.0.1:_ZN19CTelegramDispatcher16tryNextDcAddressEv
libtelegram-qt5.so.0.1:_ZN19CTelegramDispatcher16userInfoReceivedEj
libtelegram-qt5.so.0.1:_ZN19CTelegramDispatcher17ensureUpdateStateEjjj
libtelegram-qt5.so.0.1:_ZN19CTelegramDispatcher17getInitialDialogsEv
libtelegram-qt5.so.0.1:_ZN19CTelegramDispatcher17messageReadOutboxEN17TelegramNamespace4PeerEj
libtelegram-qt5.so.0.1:_ZN19CTelegramDispatcher17onUpdatesReceivedERK9TLUpdatesy
libtelegram-qt5.so.0.1:_ZN19CTelegramDispatcher17phoneCodeRequiredEv
libtelegram-qt5.so.0.1:_ZN19CTelegramDispatcher17restoreConnectionERK10QByteArray
libtelegram-qt5.so.0.1:_ZN19CTelegramDispatcher17selfUserAvailableEj
libtelegram-qt5.so.0.1:_ZN19CTelegramDispatcher17setAppInformationEPK15CAppInformation
libtelegram-qt5.so.0.1:_ZN19CTelegramDispatcher18contactListChangedEv
libtelegram-qt5.so.0.1:_ZN19CTelegramDispatcher18ensureMaxMessageIdEj
libtelegram-qt5.so.0.1:_ZN19CTelegramDispatcher18getDcConfigurationEv
libtelegram-qt5.so.0.1:_ZN19CTelegramDispatcher18getExtraConnectionEj
libtelegram-qt5.so.0.1:_ZN19CTelegramDispatcher18onPasswordReceivedERK17TLAccountPasswordy
libtelegram-qt5.so.0.1:_ZN19CTelegramDispatcher18requestPhoneStatusERK7QString
libtelegram-qt5.so.0.1:_ZN19CTelegramDispatcher18setConnectionStateEN17TelegramNamespace15ConnectionStateE
libtelegram-qt5.so.0.1:_ZN19CTelegramDispatcher19clearMainConnectionEv
libtelegram-qt5.so.0.1:_ZN19CTelegramDispatcher19defaultPingIntervalEv
libtelegram-qt5.so.0.1:_ZN19CTelegramDispatcher19fileRequestFinishedEjN17TelegramNamespace10RemoteFileE
libtelegram-qt5.so.0.1:_ZN19CTelegramDispatcher19getChatParticipantsEP7QVectorIjEj
libtelegram-qt5.so.0.1:_ZN19CTelegramDispatcher19onPackageRedirectedERK10QByteArrayj
libtelegram-qt5.so.0.1:_ZN19CTelegramDispatcher19phoneStatusReceivedERK7QStringb
libtelegram-qt5.so.0.1:_ZN19CTelegramDispatcher19setAutoReconnectionEb
libtelegram-qt5.so.0.1:_ZN19CTelegramDispatcher20contactStatusChangedEjN17TelegramNamespace13ContactStatusE
libtelegram-qt5.so.0.1:_ZN19CTelegramDispatcher20insertTelegramChatIdEj
libtelegram-qt5.so.0.1:_ZN19CTelegramDispatcher20passwordInfoReceivedEy
libtelegram-qt5.so.0.1:_ZN19CTelegramDispatcher20requestContactAvatarEj
libtelegram-qt5.so.0.1:_ZN19CTelegramDispatcher20whenFileDataReceivedERK12TLUploadFilejj
libtelegram-qt5.so.0.1:_ZN19CTelegramDispatcher20whenFileDataUploadedEj
libtelegram-qt5.so.0.1:_ZN19CTelegramDispatcher21authSignErrorReceivedEN17TelegramNamespace13AuthSignErrorERK7QString
libtelegram-qt5.so.0.1:_ZN19CTelegramDispatcher21clearExtraConnectionsEv
libtelegram-qt5.so.0.1:_ZN19CTelegramDispatcher21contactProfileChangedEj
libtelegram-qt5.so.0.1:_ZN19CTelegramDispatcher21createdChatIdReceivedEyj
libtelegram-qt5.so.0.1:_ZN19CTelegramDispatcher21getPublicMessageFlagsEj
libtelegram-qt5.so.0.1:_ZN19CTelegramDispatcher21onWantedMainDcChangedEjRK7QString
libtelegram-qt5.so.0.1:_ZN19CTelegramDispatcher21sentMessageIdReceivedEyj
libtelegram-qt5.so.0.1:_ZN19CTelegramDispatcher21userNameStatusUpdatedERK7QStringN17TelegramNamespace14UserNameStatusE
libtelegram-qt5.so.0.1:_ZN19CTelegramDispatcher22connectionStateChangedEN17TelegramNamespace15ConnectionStateE
libtelegram-qt5.so.0.1:_ZN19CTelegramDispatcher22continueInitializationENS_18InitializationStepE
libtelegram-qt5.so.0.1:_ZN19CTelegramDispatcher22ensureSignedConnectionEP19CTelegramConnection
libtelegram-qt5.so.0.1:_ZN19CTelegramDispatcher22processMessageReceivedERK9TLMessage
libtelegram-qt5.so.0.1:_ZN19CTelegramDispatcher22setMediaDataBufferSizeEj
libtelegram-qt5.so.0.1:_ZN19CTelegramDispatcher22whenContactListChangedERK7QVectorIjES3_
libtelegram-qt5.so.0.1:_ZN19CTelegramDispatcher23ensureTypingUpdateTimerEi
libtelegram-qt5.so.0.1:_ZN19CTelegramDispatcher23onConnectionAuthChangedEij
libtelegram-qt5.so.0.1:_ZN19CTelegramDispatcher23onConnectionDcIdUpdatedEjj
libtelegram-qt5.so.0.1:_ZN19CTelegramDispatcher23requestMessageMediaDataEj
libtelegram-qt5.so.0.1:_ZN19CTelegramDispatcher23whenContactListReceivedERK7QVectorIjE
libtelegram-qt5.so.0.1:_ZN19CTelegramDispatcher24messageMediaDataReceivedEN17TelegramNamespace4PeerEjRK10QByteArrayRK7QStringNS0_11MessageTypeEjj
libtelegram-qt5.so.0.1:_ZN19CTelegramDispatcher24onDcConfigurationUpdatedEv
libtelegram-qt5.so.0.1:_ZN19CTelegramDispatcher24whenUpdatesStateReceivedERK14TLUpdatesState
libtelegram-qt5.so.0.1:_ZN19CTelegramDispatcher25initConnectionSharedClearEv
libtelegram-qt5.so.0.1:_ZN19CTelegramDispatcher25initConnectionSharedFinalEv
libtelegram-qt5.so.0.1:_ZN19CTelegramDispatcher25messageActionTimerTimeoutEv
libtelegram-qt5.so.0.1:_ZN19CTelegramDispatcher25onConnectionStatusChangedEiij
libtelegram-qt5.so.0.1:_ZN19CTelegramDispatcher25onMessagesDialogsReceivedERK17TLMessagesDialogsjjj
libtelegram-qt5.so.0.1:_ZN19CTelegramDispatcher25setAcceptableMessageTypesE6QFlagsIN17TelegramNamespace11MessageTypeEE
libtelegram-qt5.so.0.1:_ZN19CTelegramDispatcher25setMessageReceivingFilterE6QFlagsIN17TelegramNamespace11MessageFlagEE
libtelegram-qt5.so.0.1:_ZN19CTelegramDispatcher26authorizationErrorReceivedEN17TelegramNamespace17UnauthorizedErrorERK7QString
libtelegram-qt5.so.0.1:_ZN19CTelegramDispatcher27contactMessageActionChangedEjN17TelegramNamespace13MessageActionE
libtelegram-qt5.so.0.1:_ZN19CTelegramDispatcher27ensureMainConnectToWantedDcEv
libtelegram-qt5.so.0.1:_ZN19CTelegramDispatcher27onUnauthorizedErrorReceivedEN17TelegramNamespace17UnauthorizedErrorE
libtelegram-qt5.so.0.1:_ZN19CTelegramDispatcher27whenMessageSentInfoReceivedEy21TLMessagesSentMessage
libtelegram-qt5.so.0.1:_ZN19CTelegramDispatcher27whenMessagesHistoryReceivedERK18TLMessagesMessages
libtelegram-qt5.so.0.1:_ZN19CTelegramDispatcher28whenMessagesFullChatReceivedERK10TLChatFullRK7QVectorI6TLChatERKS3_I6TLUserE
libtelegram-qt5.so.0.1:_ZN19CTelegramDispatcher29whenUpdatesDifferenceReceivedERK19TLUpdatesDifference
libtelegram-qt5.so.0.1:_ZN19CTelegramDispatcher30checkStateAndCallGetDifferenceEv
libtelegram-qt5.so.0.1:_ZN19CTelegramDispatcher30internalProcessMessageReceivedERK9TLMessage
libtelegram-qt5.so.0.1:_ZN19CTelegramDispatcher31contactChatMessageActionChangedEjjN17TelegramNamespace13MessageActionE
libtelegram-qt5.so.0.1:_ZN19CTelegramDispatcher31processFileRequestForConnectionEP19CTelegramConnectionj
libtelegram-qt5.so.0.1:_ZN19CTelegramDispatcher36localTypingRecommendedRepeatIntervalEv
libtelegram-qt5.so.0.1:_ZN19CTelegramDispatcher37whenAuthExportedAuthorizationReceivedEjjRK10QByteArray
libtelegram-qt5.so.0.1:_ZN19CTelegramDispatcher6logOutEv
libtelegram-qt5.so.0.1:_ZN19CTelegramDispatcher6signInERK7QStringS2_
libtelegram-qt5.so.0.1:_ZN19CTelegramDispatcher6signUpERK7QStringS2_S2_S2_
libtelegram-qt5.so.0.1:_ZN19CTelegramDispatcher7getUserEj
libtelegram-qt5.so.0.1:_ZN19CTelegramDispatcher9chatAddedEj
libtelegram-qt5.so.0.1:_ZN19CTelegramDispatcher9loggedOutEb
libtelegram-qt5.so.0.1:_ZN19CTelegramDispatcher9sendMediaERKN17TelegramNamespace4PeerERKNS0_16MessageMediaInfoE
libtelegram-qt5.so.0.1:_ZN19CTelegramDispatcher9setTypingERKN17TelegramNamespace4PeerENS0_13MessageActionE
libtelegram-qt5.so.0.1:_ZN19CTelegramDispatcherC1EP7QObject
libtelegram-qt5.so.0.1:_ZN19CTelegramDispatcherC2EP7QObject
libtelegram-qt5.so.0.1:_ZN19CTelegramDispatcherD0Ev
libtelegram-qt5.so.0.1:_ZN19CTelegramDispatcherD1Ev
libtelegram-qt5.so.0.1:_ZN19CTelegramDispatcherD2Ev
libtelegram-qt5.so.0.1:_ZN21FileRequestDescriptor12setChunkSizeEj
libtelegram-qt5.so.0.1:_ZN21FileRequestDescriptor12setMessageIdEj
libtelegram-qt5.so.0.1:_ZN21FileRequestDescriptor13uploadRequestERK10QByteArrayRK7QStringj
libtelegram-qt5.so.0.1:_ZN21FileRequestDescriptor16setInputLocationERK19TLInputFileLocation
libtelegram-qt5.so.0.1:_ZN21FileRequestDescriptor7setDcIdEj
libtelegram-qt5.so.0.1:_ZN21FileRequestDescriptor7setSizeEj
libtelegram-qt5.so.0.1:_ZN21FileRequestDescriptor8bumpPartEv
libtelegram-qt5.so.0.1:_ZN21FileRequestDescriptor9setUserIdEj
libtelegram-qt5.so.0.1:_ZN21FileRequestDescriptorC1Ev
libtelegram-qt5.so.0.1:_ZN21FileRequestDescriptorC2Ev
libtelegram-qt5.so.0.1:_ZN5Utils10aesDecryptERK10QByteArrayRK7SAesKey
libtelegram-qt5.so.0.1:_ZN5Utils10aesEncryptERK10QByteArrayRK7SAesKey
libtelegram-qt5.so.0.1:_ZN5Utils10loadRsaKeyEv
libtelegram-qt5.so.0.1:_ZN5Utils10unpackGZipERK10QByteArray
libtelegram-qt5.so.0.1:_ZN5Utils11findDividerEy
libtelegram-qt5.so.0.1:_ZN5Utils11randomBytesEPci
libtelegram-qt5.so.0.1:_ZN5Utils15getFingersprintERK10QByteArrayb
libtelegram-qt5.so.0.1:_ZN5Utils16loadHardcodedKeyEv
libtelegram-qt5.so.0.1:_ZN5Utils18binaryNumberModExpERK10QByteArrayS2_S2_
libtelegram-qt5.so.0.1:_ZN5Utils24greatestCommonOddDivisorEyy
libtelegram-qt5.so.0.1:_ZN5Utils4sha1ERK10QByteArray
libtelegram-qt5.so.0.1:_ZN5Utils6sha256ERK10QByteArray
libtelegram-qt5.so.0.1:_ZNK10CRawStream14bytesRemainingEv
libtelegram-qt5.so.0.1:_ZNK10CRawStream5atEndEv
libtelegram-qt5.so.0.1:_ZNK13CTcpTransport10metaObjectEv
libtelegram-qt5.so.0.1:_ZNK13CTcpTransport11isConnectedEv
libtelegram-qt5.so.0.1:_ZNK13CTelegramCore10metaObjectEv
libtelegram-qt5.so.0.1:_ZNK13CTelegramCore11contactListEv
libtelegram-qt5.so.0.1:_ZNK13CTelegramCore11getChatInfoEPN17TelegramNamespace9GroupChatEj
libtelegram-qt5.so.0.1:_ZNK13CTelegramCore11getUserInfoEPN17TelegramNamespace8UserInfoEj
libtelegram-qt5.so.0.1:_ZNK13CTelegramCore12maxMessageIdEv
libtelegram-qt5.so.0.1:_ZNK13CTelegramCore15connectionStateEv
libtelegram-qt5.so.0.1:_ZNK13CTelegramCore15getPasswordInfoEPN17TelegramNamespace12PasswordInfoEy
libtelegram-qt5.so.0.1:_ZNK13CTelegramCore18contactAvatarTokenEj
libtelegram-qt5.so.0.1:_ZNK13CTelegramCore19getMessageMediaInfoEPN17TelegramNamespace16MessageMediaInfoEj
libtelegram-qt5.so.0.1:_ZNK13CTelegramCore20connectionSecretInfoEv
libtelegram-qt5.so.0.1:_ZNK13CTelegramCore6selfIdEv
libtelegram-qt5.so.0.1:_ZNK13CTelegramCore8chatListEv
libtelegram-qt5.so.0.1:_ZNK13CTelegramCore9chatTitleEj
libtelegram-qt5.so.0.1:_ZNK13CTelegramCore9selfPhoneEv
libtelegram-qt5.so.0.1:_ZNK17TelegramNamespace10RemoteFile11getUniqueIdEv
libtelegram-qt5.so.0.1:_ZNK17TelegramNamespace10RemoteFile4sizeEv
libtelegram-qt5.so.0.1:_ZNK17TelegramNamespace10RemoteFile4typeEv
libtelegram-qt5.so.0.1:_ZNK17TelegramNamespace10RemoteFile6md5SumEv
libtelegram-qt5.so.0.1:_ZNK17TelegramNamespace10RemoteFile7isValidEv
libtelegram-qt5.so.0.1:_ZNK17TelegramNamespace10RemoteFile8fileNameEv
libtelegram-qt5.so.0.1:_ZNK17TelegramNamespace10metaObjectEv
libtelegram-qt5.so.0.1:_ZNK17TelegramNamespace16MessageMediaInfo16documentFileNameEv
libtelegram-qt5.so.0.1:_ZNK17TelegramNamespace16MessageMediaInfo17getRemoteFileInfoEPNS_10RemoteFileE
libtelegram-qt5.so.0.1:_ZNK17TelegramNamespace16MessageMediaInfo3altEv
libtelegram-qt5.so.0.1:_ZNK17TelegramNamespace16MessageMediaInfo4sizeEv
libtelegram-qt5.so.0.1:_ZNK17TelegramNamespace16MessageMediaInfo4typeEv
libtelegram-qt5.so.0.1:_ZNK17TelegramNamespace16MessageMediaInfo7captionEv
libtelegram-qt5.so.0.1:_ZNK17TelegramNamespace16MessageMediaInfo8durationEv
libtelegram-qt5.so.0.1:_ZNK17TelegramNamespace16MessageMediaInfo8latitudeEv
libtelegram-qt5.so.0.1:_ZNK17TelegramNamespace16MessageMediaInfo8mimeTypeEv
libtelegram-qt5.so.0.1:_ZNK17TelegramNamespace16MessageMediaInfo9longitudeEv
libtelegram-qt5.so.0.1:_ZNK17TelegramNamespace8UserInfo15getProfilePhotoEPNS_10RemoteFileENS0_16ProfilePhotoSizeE
libtelegram-qt5.so.0.1:_ZNK17TelegramNamespace8UserInfo2idEv
libtelegram-qt5.so.0.1:_ZNK17TelegramNamespace8UserInfo5phoneEv
libtelegram-qt5.so.0.1:_ZNK17TelegramNamespace8UserInfo6statusEv
libtelegram-qt5.so.0.1:_ZNK17TelegramNamespace8UserInfo8lastNameEv
libtelegram-qt5.so.0.1:_ZNK17TelegramNamespace8UserInfo8userNameEv
libtelegram-qt5.so.0.1:_ZNK17TelegramNamespace8UserInfo9firstNameEv
libtelegram-qt5.so.0.1:_ZNK17TelegramNamespace8UserInfo9wasOnlineEv
libtelegram-qt5.so.0.1:_ZNK18CTelegramTransport10metaObjectEv
libtelegram-qt5.so.0.1:_ZNK19CTelegramConnection10metaObjectEv
libtelegram-qt5.so.0.1:_ZNK19CTelegramConnection14generateAesKeyERK10QByteArrayi
libtelegram-qt5.so.0.1:_ZNK19CTelegramConnection17generateTmpAesKeyEv
libtelegram-qt5.so.0.1:_ZNK19CTelegramConnection19userNameFromPackageEy
libtelegram-qt5.so.0.1:_ZNK19CTelegramConnection20insertInitConnectionEP10QByteArray
libtelegram-qt5.so.0.1:_ZNK19CTelegramDispatcher10chatIdListEv
libtelegram-qt5.so.0.1:_ZNK19CTelegramDispatcher10dcInfoByIdEj
libtelegram-qt5.so.0.1:_ZNK19CTelegramDispatcher10metaObjectEv
libtelegram-qt5.so.0.1:_ZNK19CTelegramDispatcher11getChatInfoEPN17TelegramNamespace9GroupChatEj
libtelegram-qt5.so.0.1:_ZNK19CTelegramDispatcher11getUserInfoEPN17TelegramNamespace8UserInfoEj
libtelegram-qt5.so.0.1:_ZNK19CTelegramDispatcher12maxMessageIdEv
libtelegram-qt5.so.0.1:_ZNK19CTelegramDispatcher13contactIdListEv
libtelegram-qt5.so.0.1:_ZNK19CTelegramDispatcher15getPasswordDataEPN17TelegramNamespace12PasswordInfoEy
libtelegram-qt5.so.0.1:_ZNK19CTelegramDispatcher15userAvatarTokenEPK6TLUser
libtelegram-qt5.so.0.1:_ZNK19CTelegramDispatcher16peerToPublicPeerERK11TLInputPeer
libtelegram-qt5.so.0.1:_ZNK19CTelegramDispatcher16peerToPublicPeerERK6TLPeer
libtelegram-qt5.so.0.1:_ZNK19CTelegramDispatcher17userIdToInputUserEj
libtelegram-qt5.so.0.1:_ZNK19CTelegramDispatcher18contactAvatarTokenEj
libtelegram-qt5.so.0.1:_ZNK19CTelegramDispatcher19getMessageMediaInfoEPN17TelegramNamespace16MessageMediaInfoEj
libtelegram-qt5.so.0.1:_ZNK19CTelegramDispatcher20connectionSecretInfoEv
libtelegram-qt5.so.0.1:_ZNK19CTelegramDispatcher21filterReceivedMessageEj
libtelegram-qt5.so.0.1:_ZNK19CTelegramDispatcher21publicPeerToInputPeerERKN17TelegramNamespace4PeerE
libtelegram-qt5.so.0.1:_ZNK19CTelegramDispatcher6selfIdEv
libtelegram-qt5.so.0.1:_ZNK19CTelegramDispatcher9chatTitleEj
libtelegram-qt5.so.0.1:_ZNK19CTelegramDispatcher9selfPhoneEv
libtelegram-qt5.so.0.1:_ZNK21FileRequestDescriptor4dataEv
libtelegram-qt5.so.0.1:_ZNK21FileRequestDescriptor5partsEv
libtelegram-qt5.so.0.1:_ZNK21FileRequestDescriptor8finishedEv
libtelegram-qt5.so.0.1:_ZNK21FileRequestDescriptor9chunkSizeEv
libtelegram-qt5.so.0.1:_ZNK21FileRequestDescriptor9inputFileEv
libtelegram-qt5.so.0.1:_ZNK21FileRequestDescriptor9isBigFileEv
libtelegram-qt5.so.0.1:_ZNK7TLValue7isValidEv
libtelegram-qt5.so.0.1:_ZNK7TLValue8toStringEv
